; Function Attrs: nounwind uwtable
define hidden i32 @drsuapi_dissect_struct_DsReplicaObjectIdentifier(ptr noundef %0, i32 noundef %1, ptr noundef %2, ptr noundef %3, ptr noundef %4, ptr noundef %5, i32 noundef %6, i32 %7) local_unnamed_addr #0 {
  %9 = getelementptr inbounds nuw i8, ptr %4, i64 28
  %10 = load i32, ptr %9, align 4
  %.not = icmp ne i32 %10, 0
  %11 = and i32 %1, 3
  %.not56 = icmp eq i32 %11, 0
  %or.cond = or i1 %.not56, %.not
  %12 = and i32 %1, -4
  %13 = add i32 %12, 4
  %.0 = select i1 %or.cond, i32 %1, i32 %13
  %.not57 = icmp eq ptr %3, null
  br i1 %.not57, label %18, label %14

14:                                               ; preds = %8
  %15 = tail call ptr @proto_tree_add_item(ptr noundef nonnull %3, i32 noundef %6, ptr noundef %0, i32 noundef %.0, i32 noundef -1, i32 noundef 0) #5
  %16 = load i32, ptr @ett_drsuapi_drsuapi_DsReplicaObjectIdentifier, align 4
  %17 = tail call ptr @proto_item_add_subtree(ptr noundef %15, i32 noundef %16) #5
  br label %18

18:                                               ; preds = %14, %8
  %.054 = phi ptr [ %15, %14 ], [ null, %8 ]
  %.053 = phi ptr [ %17, %14 ], [ null, %8 ]
  %19 = load i32, ptr @hf_drsuapi_drsuapi_DsReplicaObjectIdentifier___ndr_size, align 4
  %20 = tail call i32 @PIDL_dissect_uint32(ptr noundef %0, i32 noundef %.0, ptr noundef %2, ptr noundef %.053, ptr noundef nonnull %4, ptr noundef %5, i32 noundef %19, i32 noundef 0) #5
  %21 = load i32, ptr @hf_drsuapi_drsuapi_DsReplicaObjectIdentifier___ndr_size_sid, align 4
  %22 = tail call i32 @PIDL_dissect_uint32(ptr noundef %0, i32 noundef %20, ptr noundef %2, ptr noundef %.053, ptr noundef nonnull %4, ptr noundef %5, i32 noundef %21, i32 noundef 0) #5
  %23 = load i32, ptr @hf_drsuapi_drsuapi_DsReplicaObjectIdentifier_guid, align 4
  %24 = tail call i32 @dissect_ndr_uuid_t(ptr noundef %0, i32 noundef %22, ptr noundef %2, ptr noundef %.053, ptr noundef nonnull %4, ptr noundef %5, i32 noundef %23, ptr noundef null) #5
  %25 = load i32, ptr @hf_drsuapi_drsuapi_DsReplicaObjectIdentifier_sid, align 4
  %26 = tail call i32 @dissect_ndr_nt_SID28(ptr noundef %0, i32 noundef %24, ptr noundef %2, ptr noundef %.053, ptr noundef nonnull %4, ptr noundef %5, i32 noundef %25) #5
  %27 = load i32, ptr @hf_drsuapi_drsuapi_DsReplicaObjectIdentifier___ndr_size_dn, align 4
  %28 = tail call i32 @PIDL_dissect_uint32(ptr noundef %0, i32 noundef %26, ptr noundef %2, ptr noundef %.053, ptr noundef nonnull %4, ptr noundef %5, i32 noundef %27, i32 noundef 0) #5
  %29 = tail call i32 @dissect_ndr_ucarray(ptr noundef %0, i32 noundef %28, ptr noundef %2, ptr noundef %.053, ptr noundef nonnull %4, ptr noundef %5, ptr noundef nonnull @drsuapi_dissect_element_DsReplicaObjectIdentifier_dn_) #5
  %30 = sub i32 %29, %.0
  tail call void @proto_item_set_len(ptr noundef %.054, i32 noundef %30) #5
  %31 = getelementptr inbounds nuw i8, ptr %4, i64 72
  %32 = load ptr, ptr %31, align 8
  %33 = getelementptr inbounds nuw i8, ptr %32, i64 96
  %34 = load i32, ptr %33, align 8
  %35 = and i32 %34, 1
  %.not58 = icmp eq i32 %35, 0
  br i1 %.not58, label %42, label %36

36:                                               ; preds = %18
  %37 = load i32, ptr %9, align 4
  %.not59 = icmp ne i32 %37, 0
  %38 = and i32 %29, 3
  %.not60 = icmp eq i32 %38, 0
  %or.cond61 = or i1 %.not60, %.not59
  br i1 %or.cond61, label %42, label %39

39:                                               ; preds = %36
  %40 = and i32 %29, -4
  %41 = add i32 %40, 4
  br label %42

42:                                               ; preds = %36, %39, %18
  %.1 = phi i32 [ %29, %36 ], [ %41, %39 ], [ %29, %18 ]
  ret i32 %.1
}